target datalayout = "e-m:e-p270:32:32-p271:32:32-p272:64:64-i64:64-i128:128-f80:128-n8:16:32:64-S128"
target triple = "x86_64-pc-linux-gnu"

%struct.VP9DSPContext = type { [4 x [15 x ptr]], [5 x [4 x ptr]], [3 x [2 x ptr]], [2 x ptr], [2 x [2 x [2 x ptr]]], [5 x [4 x [2 x [2 x [2 x ptr]]]]], [5 x [4 x [2 x ptr]]] }

; Function Attrs: cold nounwind optsize uwtable
define internal void @ff_vp9dsp_scaled_mc_init_8(ptr noundef %0) #0 {
  %2 = alloca ptr, align 8
  store ptr %0, ptr %2, align 8, !tbaa !4
  %3 = load ptr, ptr %2, align 8, !tbaa !4
  %4 = getelementptr inbounds nuw %struct.VP9DSPContext, ptr %3, i32 0, i32 6
  %5 = getelementptr inbounds [5 x [4 x [2 x ptr]]], ptr %4, i64 0, i64 0
  %6 = getelementptr inbounds [4 x [2 x ptr]], ptr %5, i64 0, i64 0
  %7 = getelementptr inbounds [2 x ptr], ptr %6, i64 0, i64 0
  store ptr @put_scaled_smooth_64_c, ptr %7, align 8, !tbaa !9
  %8 = load ptr, ptr %2, align 8, !tbaa !4
  %9 = getelementptr inbounds nuw %struct.VP9DSPContext, ptr %8, i32 0, i32 6
  %10 = getelementptr inbounds [5 x [4 x [2 x ptr]]], ptr %9, i64 0, i64 0
  %11 = getelementptr inbounds [4 x [2 x ptr]], ptr %10, i64 0, i64 1
  %12 = getelementptr inbounds [2 x ptr], ptr %11, i64 0, i64 0
  store ptr @put_scaled_regular_64_c, ptr %12, align 8, !tbaa !9
  %13 = load ptr, ptr %2, align 8, !tbaa !4
  %14 = getelementptr inbounds nuw %struct.VP9DSPContext, ptr %13, i32 0, i32 6
  %15 = getelementptr inbounds [5 x [4 x [2 x ptr]]], ptr %14, i64 0, i64 0
  %16 = getelementptr inbounds [4 x [2 x ptr]], ptr %15, i64 0, i64 2
  %17 = getelementptr inbounds [2 x ptr], ptr %16, i64 0, i64 0
  store ptr @put_scaled_sharp_64_c, ptr %17, align 8, !tbaa !9
  %18 = load ptr, ptr %2, align 8, !tbaa !4
  %19 = getelementptr inbounds nuw %struct.VP9DSPContext, ptr %18, i32 0, i32 6
  %20 = getelementptr inbounds [5 x [4 x [2 x ptr]]], ptr %19, i64 0, i64 0
  %21 = getelementptr inbounds [4 x [2 x ptr]], ptr %20, i64 0, i64 3
  %22 = getelementptr inbounds [2 x ptr], ptr %21, i64 0, i64 0
  store ptr @put_scaled_bilin_64_c, ptr %22, align 8, !tbaa !9
  %23 = load ptr, ptr %2, align 8, !tbaa !4
  %24 = getelementptr inbounds nuw %struct.VP9DSPContext, ptr %23, i32 0, i32 6
  %25 = getelementptr inbounds [5 x [4 x [2 x ptr]]], ptr %24, i64 0, i64 0
  %26 = getelementptr inbounds [4 x [2 x ptr]], ptr %25, i64 0, i64 0
  %27 = getelementptr inbounds [2 x ptr], ptr %26, i64 0, i64 1
  store ptr @avg_scaled_smooth_64_c, ptr %27, align 8, !tbaa !9
  %28 = load ptr, ptr %2, align 8, !tbaa !4
  %29 = getelementptr inbounds nuw %struct.VP9DSPContext, ptr %28, i32 0, i32 6
  %30 = getelementptr inbounds [5 x [4 x [2 x ptr]]], ptr %29, i64 0, i64 0
  %31 = getelementptr inbounds [4 x [2 x ptr]], ptr %30, i64 0, i64 1
  %32 = getelementptr inbounds [2 x ptr], ptr %31, i64 0, i64 1
  store ptr @avg_scaled_regular_64_c, ptr %32, align 8, !tbaa !9
  %33 = load ptr, ptr %2, align 8, !tbaa !4
  %34 = getelementptr inbounds nuw %struct.VP9DSPContext, ptr %33, i32 0, i32 6
  %35 = getelementptr inbounds [5 x [4 x [2 x ptr]]], ptr %34, i64 0, i64 0
  %36 = getelementptr inbounds [4 x [2 x ptr]], ptr %35, i64 0, i64 2
  %37 = getelementptr inbounds [2 x ptr], ptr %36, i64 0, i64 1
  store ptr @avg_scaled_sharp_64_c, ptr %37, align 8, !tbaa !9
  %38 = load ptr, ptr %2, align 8, !tbaa !4
  %39 = getelementptr inbounds nuw %struct.VP9DSPContext, ptr %38, i32 0, i32 6
  %40 = getelementptr inbounds [5 x [4 x [2 x ptr]]], ptr %39, i64 0, i64 0
  %41 = getelementptr inbounds [4 x [2 x ptr]], ptr %40, i64 0, i64 3
  %42 = getelementptr inbounds [2 x ptr], ptr %41, i64 0, i64 1
  store ptr @avg_scaled_bilin_64_c, ptr %42, align 8, !tbaa !9
  %43 = load ptr, ptr %2, align 8, !tbaa !4
  %44 = getelementptr inbounds nuw %struct.VP9DSPContext, ptr %43, i32 0, i32 6
  %45 = getelementptr inbounds [5 x [4 x [2 x ptr]]], ptr %44, i64 0, i64 1
  %46 = getelementptr inbounds [4 x [2 x ptr]], ptr %45, i64 0, i64 0
  %47 = getelementptr inbounds [2 x ptr], ptr %46, i64 0, i64 0
  store ptr @put_scaled_smooth_32_c, ptr %47, align 8, !tbaa !9
  %48 = load ptr, ptr %2, align 8, !tbaa !4
  %49 = getelementptr inbounds nuw %struct.VP9DSPContext, ptr %48, i32 0, i32 6
  %50 = getelementptr inbounds [5 x [4 x [2 x ptr]]], ptr %49, i64 0, i64 1
  %51 = getelementptr inbounds [4 x [2 x ptr]], ptr %50, i64 0, i64 1
  %52 = getelementptr inbounds [2 x ptr], ptr %51, i64 0, i64 0
  store ptr @put_scaled_regular_32_c, ptr %52, align 8, !tbaa !9
  %53 = load ptr, ptr %2, align 8, !tbaa !4
  %54 = getelementptr inbounds nuw %struct.VP9DSPContext, ptr %53, i32 0, i32 6
  %55 = getelementptr inbounds [5 x [4 x [2 x ptr]]], ptr %54, i64 0, i64 1
  %56 = getelementptr inbounds [4 x [2 x ptr]], ptr %55, i64 0, i64 2
  %57 = getelementptr inbounds [2 x ptr], ptr %56, i64 0, i64 0
  store ptr @put_scaled_sharp_32_c, ptr %57, align 8, !tbaa !9
  %58 = load ptr, ptr %2, align 8, !tbaa !4
  %59 = getelementptr inbounds nuw %struct.VP9DSPContext, ptr %58, i32 0, i32 6
  %60 = getelementptr inbounds [5 x [4 x [2 x ptr]]], ptr %59, i64 0, i64 1
  %61 = getelementptr inbounds [4 x [2 x ptr]], ptr %60, i64 0, i64 3
  %62 = getelementptr inbounds [2 x ptr], ptr %61, i64 0, i64 0
  store ptr @put_scaled_bilin_32_c, ptr %62, align 8, !tbaa !9
  %63 = load ptr, ptr %2, align 8, !tbaa !4
  %64 = getelementptr inbounds nuw %struct.VP9DSPContext, ptr %63, i32 0, i32 6
  %65 = getelementptr inbounds [5 x [4 x [2 x ptr]]], ptr %64, i64 0, i64 1
  %66 = getelementptr inbounds [4 x [2 x ptr]], ptr %65, i64 0, i64 0
  %67 = getelementptr inbounds [2 x ptr], ptr %66, i64 0, i64 1
  store ptr @avg_scaled_smooth_32_c, ptr %67, align 8, !tbaa !9
  %68 = load ptr, ptr %2, align 8, !tbaa !4
  %69 = getelementptr inbounds nuw %struct.VP9DSPContext, ptr %68, i32 0, i32 6
  %70 = getelementptr inbounds [5 x [4 x [2 x ptr]]], ptr %69, i64 0, i64 1
  %71 = getelementptr inbounds [4 x [2 x ptr]], ptr %70, i64 0, i64 1
  %72 = getelementptr inbounds [2 x ptr], ptr %71, i64 0, i64 1
  store ptr @avg_scaled_regular_32_c, ptr %72, align 8, !tbaa !9
  %73 = load ptr, ptr %2, align 8, !tbaa !4
  %74 = getelementptr inbounds nuw %struct.VP9DSPContext, ptr %73, i32 0, i32 6
  %75 = getelementptr inbounds [5 x [4 x [2 x ptr]]], ptr %74, i64 0, i64 1
  %76 = getelementptr inbounds [4 x [2 x ptr]], ptr %75, i64 0, i64 2
  %77 = getelementptr inbounds [2 x ptr], ptr %76, i64 0, i64 1
  store ptr @avg_scaled_sharp_32_c, ptr %77, align 8, !tbaa !9
  %78 = load ptr, ptr %2, align 8, !tbaa !4
  %79 = getelementptr inbounds nuw %struct.VP9DSPContext, ptr %78, i32 0, i32 6
  %80 = getelementptr inbounds [5 x [4 x [2 x ptr]]], ptr %79, i64 0, i64 1
  %81 = getelementptr inbounds [4 x [2 x ptr]], ptr %80, i64 0, i64 3
  %82 = getelementptr inbounds [2 x ptr], ptr %81, i64 0, i64 1
  store ptr @avg_scaled_bilin_32_c, ptr %82, align 8, !tbaa !9
  %83 = load ptr, ptr %2, align 8, !tbaa !4
  %84 = getelementptr inbounds nuw %struct.VP9DSPContext, ptr %83, i32 0, i32 6
  %85 = getelementptr inbounds [5 x [4 x [2 x ptr]]], ptr %84, i64 0, i64 2
  %86 = getelementptr inbounds [4 x [2 x ptr]], ptr %85, i64 0, i64 0
  %87 = getelementptr inbounds [2 x ptr], ptr %86, i64 0, i64 0
  store ptr @put_scaled_smooth_16_c, ptr %87, align 8, !tbaa !9
  %88 = load ptr, ptr %2, align 8, !tbaa !4
  %89 = getelementptr inbounds nuw %struct.VP9DSPContext, ptr %88, i32 0, i32 6
  %90 = getelementptr inbounds [5 x [4 x [2 x ptr]]], ptr %89, i64 0, i64 2
  %91 = getelementptr inbounds [4 x [2 x ptr]], ptr %90, i64 0, i64 1
  %92 = getelementptr inbounds [2 x ptr], ptr %91, i64 0, i64 0
  store ptr @put_scaled_regular_16_c, ptr %92, align 8, !tbaa !9
  %93 = load ptr, ptr %2, align 8, !tbaa !4
  %94 = getelementptr inbounds nuw %struct.VP9DSPContext, ptr %93, i32 0, i32 6
  %95 = getelementptr inbounds [5 x [4 x [2 x ptr]]], ptr %94, i64 0, i64 2
  %96 = getelementptr inbounds [4 x [2 x ptr]], ptr %95, i64 0, i64 2
  %97 = getelementptr inbounds [2 x ptr], ptr %96, i64 0, i64 0
  store ptr @put_scaled_sharp_16_c, ptr %97, align 8, !tbaa !9
  %98 = load ptr, ptr %2, align 8, !tbaa !4
  %99 = getelementptr inbounds nuw %struct.VP9DSPContext, ptr %98, i32 0, i32 6
  %100 = getelementptr inbounds [5 x [4 x [2 x ptr]]], ptr %99, i64 0, i64 2
  %101 = getelementptr inbounds [4 x [2 x ptr]], ptr %100, i64 0, i64 3
  %102 = getelementptr inbounds [2 x ptr], ptr %101, i64 0, i64 0
  store ptr @put_scaled_bilin_16_c, ptr %102, align 8, !tbaa !9
  %103 = load ptr, ptr %2, align 8, !tbaa !4
  %104 = getelementptr inbounds nuw %struct.VP9DSPContext, ptr %103, i32 0, i32 6
  %105 = getelementptr inbounds [5 x [4 x [2 x ptr]]], ptr %104, i64 0, i64 2
  %106 = getelementptr inbounds [4 x [2 x ptr]], ptr %105, i64 0, i64 0
  %107 = getelementptr inbounds [2 x ptr], ptr %106, i64 0, i64 1
  store ptr @avg_scaled_smooth_16_c, ptr %107, align 8, !tbaa !9
  %108 = load ptr, ptr %2, align 8, !tbaa !4
  %109 = getelementptr inbounds nuw %struct.VP9DSPContext, ptr %108, i32 0, i32 6
  %110 = getelementptr inbounds [5 x [4 x [2 x ptr]]], ptr %109, i64 0, i64 2
  %111 = getelementptr inbounds [4 x [2 x ptr]], ptr %110, i64 0, i64 1
  %112 = getelementptr inbounds [2 x ptr], ptr %111, i64 0, i64 1
  store ptr @avg_scaled_regular_16_c, ptr %112, align 8, !tbaa !9
  %113 = load ptr, ptr %2, align 8, !tbaa !4
  %114 = getelementptr inbounds nuw %struct.VP9DSPContext, ptr %113, i32 0, i32 6
  %115 = getelementptr inbounds [5 x [4 x [2 x ptr]]], ptr %114, i64 0, i64 2
  %116 = getelementptr inbounds [4 x [2 x ptr]], ptr %115, i64 0, i64 2
  %117 = getelementptr inbounds [2 x ptr], ptr %116, i64 0, i64 1
  store ptr @avg_scaled_sharp_16_c, ptr %117, align 8, !tbaa !9
  %118 = load ptr, ptr %2, align 8, !tbaa !4
  %119 = getelementptr inbounds nuw %struct.VP9DSPContext, ptr %118, i32 0, i32 6
  %120 = getelementptr inbounds [5 x [4 x [2 x ptr]]], ptr %119, i64 0, i64 2
  %121 = getelementptr inbounds [4 x [2 x ptr]], ptr %120, i64 0, i64 3
  %122 = getelementptr inbounds [2 x ptr], ptr %121, i64 0, i64 1
  store ptr @avg_scaled_bilin_16_c, ptr %122, align 8, !tbaa !9
  %123 = load ptr, ptr %2, align 8, !tbaa !4
  %124 = getelementptr inbounds nuw %struct.VP9DSPContext, ptr %123, i32 0, i32 6
  %125 = getelementptr inbounds [5 x [4 x [2 x ptr]]], ptr %124, i64 0, i64 3
  %126 = getelementptr inbounds [4 x [2 x ptr]], ptr %125, i64 0, i64 0
  %127 = getelementptr inbounds [2 x ptr], ptr %126, i64 0, i64 0
  store ptr @put_scaled_smooth_8_c, ptr %127, align 8, !tbaa !9
  %128 = load ptr, ptr %2, align 8, !tbaa !4
  %129 = getelementptr inbounds nuw %struct.VP9DSPContext, ptr %128, i32 0, i32 6
  %130 = getelementptr inbounds [5 x [4 x [2 x ptr]]], ptr %129, i64 0, i64 3
  %131 = getelementptr inbounds [4 x [2 x ptr]], ptr %130, i64 0, i64 1
  %132 = getelementptr inbounds [2 x ptr], ptr %131, i64 0, i64 0
  store ptr @put_scaled_regular_8_c, ptr %132, align 8, !tbaa !9
  %133 = load ptr, ptr %2, align 8, !tbaa !4
  %134 = getelementptr inbounds nuw %struct.VP9DSPContext, ptr %133, i32 0, i32 6
  %135 = getelementptr inbounds [5 x [4 x [2 x ptr]]], ptr %134, i64 0, i64 3
  %136 = getelementptr inbounds [4 x [2 x ptr]], ptr %135, i64 0, i64 2
  %137 = getelementptr inbounds [2 x ptr], ptr %136, i64 0, i64 0
  store ptr @put_scaled_sharp_8_c, ptr %137, align 8, !tbaa !9
  %138 = load ptr, ptr %2, align 8, !tbaa !4
  %139 = getelementptr inbounds nuw %struct.VP9DSPContext, ptr %138, i32 0, i32 6
  %140 = getelementptr inbounds [5 x [4 x [2 x ptr]]], ptr %139, i64 0, i64 3
  %141 = getelementptr inbounds [4 x [2 x ptr]], ptr %140, i64 0, i64 3
  %142 = getelementptr inbounds [2 x ptr], ptr %141, i64 0, i64 0
  store ptr @put_scaled_bilin_8_c, ptr %142, align 8, !tbaa !9
  %143 = load ptr, ptr %2, align 8, !tbaa !4
  %144 = getelementptr inbounds nuw %struct.VP9DSPContext, ptr %143, i32 0, i32 6
  %145 = getelementptr inbounds [5 x [4 x [2 x ptr]]], ptr %144, i64 0, i64 3
  %146 = getelementptr inbounds [4 x [2 x ptr]], ptr %145, i64 0, i64 0
  %147 = getelementptr inbounds [2 x ptr], ptr %146, i64 0, i64 1
  store ptr @avg_scaled_smooth_8_c, ptr %147, align 8, !tbaa !9
  %148 = load ptr, ptr %2, align 8, !tbaa !4
  %149 = getelementptr inbounds nuw %struct.VP9DSPContext, ptr %148, i32 0, i32 6
  %150 = getelementptr inbounds [5 x [4 x [2 x ptr]]], ptr %149, i64 0, i64 3
  %151 = getelementptr inbounds [4 x [2 x ptr]], ptr %150, i64 0, i64 1
  %152 = getelementptr inbounds [2 x ptr], ptr %151, i64 0, i64 1
  store ptr @avg_scaled_regular_8_c, ptr %152, align 8, !tbaa !9
  %153 = load ptr, ptr %2, align 8, !tbaa !4
  %154 = getelementptr inbounds nuw %struct.VP9DSPContext, ptr %153, i32 0, i32 6
  %155 = getelementptr inbounds [5 x [4 x [2 x ptr]]], ptr %154, i64 0, i64 3
  %156 = getelementptr inbounds [4 x [2 x ptr]], ptr %155, i64 0, i64 2
  %157 = getelementptr inbounds [2 x ptr], ptr %156, i64 0, i64 1
  store ptr @avg_scaled_sharp_8_c, ptr %157, align 8, !tbaa !9
  %158 = load ptr, ptr %2, align 8, !tbaa !4
  %159 = getelementptr inbounds nuw %struct.VP9DSPContext, ptr %158, i32 0, i32 6
  %160 = getelementptr inbounds [5 x [4 x [2 x ptr]]], ptr %159, i64 0, i64 3
  %161 = getelementptr inbounds [4 x [2 x ptr]], ptr %160, i64 0, i64 3
  %162 = getelementptr inbounds [2 x ptr], ptr %161, i64 0, i64 1
  store ptr @avg_scaled_bilin_8_c, ptr %162, align 8, !tbaa !9
  %163 = load ptr, ptr %2, align 8, !tbaa !4
  %164 = getelementptr inbounds nuw %struct.VP9DSPContext, ptr %163, i32 0, i32 6
  %165 = getelementptr inbounds [5 x [4 x [2 x ptr]]], ptr %164, i64 0, i64 4
  %166 = getelementptr inbounds [4 x [2 x ptr]], ptr %165, i64 0, i64 0
  %167 = getelementptr inbounds [2 x ptr], ptr %166, i64 0, i64 0
  store ptr @put_scaled_smooth_4_c, ptr %167, align 8, !tbaa !9
  %168 = load ptr, ptr %2, align 8, !tbaa !4
  %169 = getelementptr inbounds nuw %struct.VP9DSPContext, ptr %168, i32 0, i32 6
  %170 = getelementptr inbounds [5 x [4 x [2 x ptr]]], ptr %169, i64 0, i64 4
  %171 = getelementptr inbounds [4 x [2 x ptr]], ptr %170, i64 0, i64 1
  %172 = getelementptr inbounds [2 x ptr], ptr %171, i64 0, i64 0
  store ptr @put_scaled_regular_4_c, ptr %172, align 8, !tbaa !9
  %173 = load ptr, ptr %2, align 8, !tbaa !4
  %174 = getelementptr inbounds nuw %struct.VP9DSPContext, ptr %173, i32 0, i32 6
  %175 = getelementptr inbounds [5 x [4 x [2 x ptr]]], ptr %174, i64 0, i64 4
  %176 = getelementptr inbounds [4 x [2 x ptr]], ptr %175, i64 0, i64 2
  %177 = getelementptr inbounds [2 x ptr], ptr %176, i64 0, i64 0
  store ptr @put_scaled_sharp_4_c, ptr %177, align 8, !tbaa !9
  %178 = load ptr, ptr %2, align 8, !tbaa !4
  %179 = getelementptr inbounds nuw %struct.VP9DSPContext, ptr %178, i32 0, i32 6
  %180 = getelementptr inbounds [5 x [4 x [2 x ptr]]], ptr %179, i64 0, i64 4
  %181 = getelementptr inbounds [4 x [2 x ptr]], ptr %180, i64 0, i64 3
  %182 = getelementptr inbounds [2 x ptr], ptr %181, i64 0, i64 0
  store ptr @put_scaled_bilin_4_c, ptr %182, align 8, !tbaa !9
  %183 = load ptr, ptr %2, align 8, !tbaa !4
  %184 = getelementptr inbounds nuw %struct.VP9DSPContext, ptr %183, i32 0, i32 6
  %185 = getelementptr inbounds [5 x [4 x [2 x ptr]]], ptr %184, i64 0, i64 4
  %186 = getelementptr inbounds [4 x [2 x ptr]], ptr %185, i64 0, i64 0
  %187 = getelementptr inbounds [2 x ptr], ptr %186, i64 0, i64 1
  store ptr @avg_scaled_smooth_4_c, ptr %187, align 8, !tbaa !9
  %188 = load ptr, ptr %2, align 8, !tbaa !4
  %189 = getelementptr inbounds nuw %struct.VP9DSPContext, ptr %188, i32 0, i32 6
  %190 = getelementptr inbounds [5 x [4 x [2 x ptr]]], ptr %189, i64 0, i64 4
  %191 = getelementptr inbounds [4 x [2 x ptr]], ptr %190, i64 0, i64 1
  %192 = getelementptr inbounds [2 x ptr], ptr %191, i64 0, i64 1
  store ptr @avg_scaled_regular_4_c, ptr %192, align 8, !tbaa !9
  %193 = load ptr, ptr %2, align 8, !tbaa !4
  %194 = getelementptr inbounds nuw %struct.VP9DSPContext, ptr %193, i32 0, i32 6
  %195 = getelementptr inbounds [5 x [4 x [2 x ptr]]], ptr %194, i64 0, i64 4
  %196 = getelementptr inbounds [4 x [2 x ptr]], ptr %195, i64 0, i64 2
  %197 = getelementptr inbounds [2 x ptr], ptr %196, i64 0, i64 1
  store ptr @avg_scaled_sharp_4_c, ptr %197, align 8, !tbaa !9
  %198 = load ptr, ptr %2, align 8, !tbaa !4
  %199 = getelementptr inbounds nuw %struct.VP9DSPContext, ptr %198, i32 0, i32 6
  %200 = getelementptr inbounds [5 x [4 x [2 x ptr]]], ptr %199, i64 0, i64 4
  %201 = getelementptr inbounds [4 x [2 x ptr]], ptr %200, i64 0, i64 3
  %202 = getelementptr inbounds [2 x ptr], ptr %201, i64 0, i64 1
  store ptr @avg_scaled_bilin_4_c, ptr %202, align 8, !tbaa !9
  ret void
}